target datalayout = "e-m:e-p270:32:32-p271:32:32-p272:64:64-i64:64-i128:128-f80:128-n8:16:32:64-S128"
target triple = "x86_64-pc-linux-gnu"

%struct.SwsLut3D = type { %struct.SwsColorMap, i8, [65 x [65 x [65 x %struct.v3u16_t]]], [129 x [129 x [65 x %struct.v3u16_t]]], [257 x %struct.v2u16_t] }
%struct.SwsColorMap = type { %struct.SwsColor, %struct.SwsColor, i32 }
%struct.SwsColor = type { i32, i32, %struct.AVPrimaryCoefficients, %struct.AVRational, %struct.AVRational, %struct.AVRational, %struct.AVRational }
%struct.AVPrimaryCoefficients = type { %struct.AVCIExy, %struct.AVCIExy, %struct.AVCIExy }
%struct.AVCIExy = type { %struct.AVRational, %struct.AVRational }
%struct.AVRational = type { i32, i32 }
%struct.v3u16_t = type { i16, i16, i16 }
%struct.v2u16_t = type { i16, i16 }

; Function Attrs: nounwind uwtable
define void @ff_sws_lut3d_update(ptr noundef %0, ptr noundef %1) #0 {
  %3 = alloca ptr, align 8
  %4 = alloca ptr, align 8
  store ptr %0, ptr %3, align 8, !tbaa !4
  store ptr %1, ptr %4, align 8, !tbaa !28
  %5 = load ptr, ptr %4, align 8, !tbaa !28
  %6 = icmp ne ptr %5, null
  br i1 %6, label %7, label %12

7:                                                ; preds = %2
  %8 = load ptr, ptr %3, align 8, !tbaa !4
  %9 = getelementptr inbounds nuw %struct.SwsLut3D, ptr %8, i32 0, i32 1
  %10 = load i8, ptr %9, align 4, !tbaa !9, !range !26, !noundef !27
  %11 = trunc i8 %10 to i1
  br i1 %11, label %13, label %12

12:                                               ; preds = %7, %2
  br label %31

13:                                               ; preds = %7
  %14 = load ptr, ptr %3, align 8, !tbaa !4
  %15 = getelementptr inbounds nuw %struct.SwsLut3D, ptr %14, i32 0, i32 0
  %16 = getelementptr inbounds nuw %struct.SwsColorMap, ptr %15, i32 0, i32 0
  %17 = getelementptr inbounds nuw %struct.SwsColor, ptr %16, i32 0, i32 5
  %18 = load ptr, ptr %4, align 8, !tbaa !28
  %19 = getelementptr inbounds nuw %struct.SwsColor, ptr %18, i32 0, i32 5
  call void @llvm.memcpy.p0.p0.i64(ptr align 4 %17, ptr align 4 %19, i64 8, i1 false), !tbaa.struct !30
  %20 = load ptr, ptr %3, align 8, !tbaa !4
  %21 = getelementptr inbounds nuw %struct.SwsLut3D, ptr %20, i32 0, i32 0
  %22 = getelementptr inbounds nuw %struct.SwsColorMap, ptr %21, i32 0, i32 0
  %23 = getelementptr inbounds nuw %struct.SwsColor, ptr %22, i32 0, i32 6
  %24 = load ptr, ptr %4, align 8, !tbaa !28
  %25 = getelementptr inbounds nuw %struct.SwsColor, ptr %24, i32 0, i32 6
  call void @llvm.memcpy.p0.p0.i64(ptr align 4 %23, ptr align 4 %25, i64 8, i1 false), !tbaa.struct !30
  %26 = load ptr, ptr %3, align 8, !tbaa !4
  %27 = getelementptr inbounds nuw %struct.SwsLut3D, ptr %26, i32 0, i32 4
  %28 = getelementptr inbounds [257 x %struct.v2u16_t], ptr %27, i64 0, i64 0
  %29 = load ptr, ptr %3, align 8, !tbaa !4
  %30 = getelementptr inbounds nuw %struct.SwsLut3D, ptr %29, i32 0, i32 0
  call void @ff_sws_tone_map_generate(ptr noundef %28, i32 noundef 257, ptr noundef %30)
  br label %31

31:                                               ; preds = %13, %12
  ret void
}

; Function Attrs: nounwind uwtable
define zeroext i1 @ff_sws_lut3d_test_fmt(i32 noundef %0, i32 noundef %1) #0 {
  %3 = alloca i32, align 4
  %4 = alloca i32, align 4
  store i32 %0, ptr %3, align 4, !tbaa !21
  store i32 %1, ptr %4, align 4, !tbaa !21
  %5 = load i32, ptr %3, align 4, !tbaa !21
  %6 = icmp eq i32 %5, 105
  ret i1 %6
}

; Function Attrs: nounwind uwtable
define i32 @ff_sws_lut3d_generate(ptr noundef %0, i32 noundef %1, i32 noundef %2, ptr noundef %3) #0 {
  %5 = alloca i32, align 4
  %6 = alloca ptr, align 8
  %7 = alloca i32, align 4
  %8 = alloca i32, align 4
  %9 = alloca ptr, align 8
  %10 = alloca i32, align 4
  %11 = alloca i32, align 4
  store ptr %0, ptr %6, align 8, !tbaa !4
  store i32 %1, ptr %7, align 4, !tbaa !21
  store i32 %2, ptr %8, align 4, !tbaa !21
  store ptr %3, ptr %9, align 8, !tbaa !22
  call void @llvm.lifetime.start.p0(i64 4, ptr %10) #5
  %12 = load i32, ptr %7, align 4, !tbaa !21
  %13 = call zeroext i1 @ff_sws_lut3d_test_fmt(i32 noundef %12, i32 noundef 0)
  br i1 %13, label %14, label %17

14:                                               ; preds = %4
  %15 = load i32, ptr %8, align 4, !tbaa !21
  %16 = call zeroext i1 @ff_sws_lut3d_test_fmt(i32 noundef %15, i32 noundef 1)
  br i1 %16, label %18, label %17

17:                                               ; preds = %14, %4
  store i32 -22, ptr %5, align 4
  store i32 1, ptr %11, align 4
  br label %64

18:                                               ; preds = %14
  %19 = load ptr, ptr %9, align 8, !tbaa !22
  %20 = getelementptr inbounds nuw %struct.SwsColorMap, ptr %19, i32 0, i32 0
  %21 = getelementptr inbounds nuw %struct.SwsColor, ptr %20, i32 0, i32 5
  %22 = getelementptr inbounds nuw %struct.AVRational, ptr %21, i32 0, i32 0
  %23 = load i32, ptr %22, align 4, !tbaa !24
  %24 = icmp sgt i32 %23, 0
  %25 = load ptr, ptr %6, align 8, !tbaa !4
  %26 = getelementptr inbounds nuw %struct.SwsLut3D, ptr %25, i32 0, i32 1
  %27 = zext i1 %24 to i8
  store i8 %27, ptr %26, align 4, !tbaa !9
  %28 = load ptr, ptr %6, align 8, !tbaa !4
  %29 = getelementptr inbounds nuw %struct.SwsLut3D, ptr %28, i32 0, i32 0
  %30 = load ptr, ptr %9, align 8, !tbaa !22
  call void @llvm.memcpy.p0.p0.i64(ptr align 4 %29, ptr align 4 %30, i64 180, i1 false), !tbaa.struct !25
  %31 = load ptr, ptr %6, align 8, !tbaa !4
  %32 = getelementptr inbounds nuw %struct.SwsLut3D, ptr %31, i32 0, i32 1
  %33 = load i8, ptr %32, align 4, !tbaa !9, !range !26, !noundef !27
  %34 = trunc i8 %33 to i1
  br i1 %34, label %35, label %56

35:                                               ; preds = %18
  %36 = load ptr, ptr %6, align 8, !tbaa !4
  %37 = getelementptr inbounds nuw %struct.SwsLut3D, ptr %36, i32 0, i32 2
  %38 = getelementptr inbounds [65 x [65 x [65 x %struct.v3u16_t]]], ptr %37, i64 0, i64 0
  %39 = getelementptr inbounds [65 x [65 x %struct.v3u16_t]], ptr %38, i64 0, i64 0
  %40 = getelementptr inbounds [65 x %struct.v3u16_t], ptr %39, i64 0, i64 0
  %41 = load ptr, ptr %6, align 8, !tbaa !4
  %42 = getelementptr inbounds nuw %struct.SwsLut3D, ptr %41, i32 0, i32 3
  %43 = getelementptr inbounds [129 x [129 x [65 x %struct.v3u16_t]]], ptr %42, i64 0, i64 0
  %44 = getelementptr inbounds [129 x [65 x %struct.v3u16_t]], ptr %43, i64 0, i64 0
  %45 = getelementptr inbounds [65 x %struct.v3u16_t], ptr %44, i64 0, i64 0
  %46 = load ptr, ptr %9, align 8, !tbaa !22
  %47 = call i32 @ff_sws_color_map_generate_dynamic(ptr noundef %40, ptr noundef %45, i32 noundef 65, i32 noundef 65, i32 noundef 129, ptr noundef %46)
  store i32 %47, ptr %10, align 4, !tbaa !21
  %48 = load i32, ptr %10, align 4, !tbaa !21
  %49 = icmp slt i32 %48, 0
  br i1 %49, label %50, label %52

50:                                               ; preds = %35
  %51 = load i32, ptr %10, align 4, !tbaa !21
  store i32 %51, ptr %5, align 4
  store i32 1, ptr %11, align 4
  br label %64

52:                                               ; preds = %35
  %53 = load ptr, ptr %6, align 8, !tbaa !4
  %54 = load ptr, ptr %9, align 8, !tbaa !22
  %55 = getelementptr inbounds nuw %struct.SwsColorMap, ptr %54, i32 0, i32 0
  call void @ff_sws_lut3d_update(ptr noundef %53, ptr noundef %55)
  store i32 0, ptr %5, align 4
  store i32 1, ptr %11, align 4
  br label %64

56:                                               ; preds = %18
  %57 = load ptr, ptr %6, align 8, !tbaa !4
  %58 = getelementptr inbounds nuw %struct.SwsLut3D, ptr %57, i32 0, i32 2
  %59 = getelementptr inbounds [65 x [65 x [65 x %struct.v3u16_t]]], ptr %58, i64 0, i64 0
  %60 = getelementptr inbounds [65 x [65 x %struct.v3u16_t]], ptr %59, i64 0, i64 0
  %61 = getelementptr inbounds [65 x %struct.v3u16_t], ptr %60, i64 0, i64 0
  %62 = load ptr, ptr %9, align 8, !tbaa !22
  %63 = call i32 @ff_sws_color_map_generate_static(ptr noundef %61, i32 noundef 65, ptr noundef %62)
  store i32 %63, ptr %5, align 4
  store i32 1, ptr %11, align 4
  br label %64

64:                                               ; preds = %56, %52, %50, %17
  call void @llvm.lifetime.end.p0(i64 4, ptr %10) #5
  %65 = load i32, ptr %5, align 4
  ret i32 %65
}