; Function Attrs: nounwind uwtable
define i32 @ff_sws_lut3d_generate(ptr noundef %0, i32 noundef %1, i32 noundef %2, ptr noundef %3) local_unnamed_addr #0 {
  %5 = icmp eq i32 %1, 105
  %6 = icmp eq i32 %2, 105
  %or.cond = and i1 %5, %6
  br i1 %or.cond, label %7, label %ff_sws_lut3d_update.exit

7:                                                ; preds = %4
  %8 = getelementptr inbounds nuw i8, ptr %3, i64 72
  %9 = load i32, ptr %8, align 4, !tbaa !15
  %10 = icmp sgt i32 %9, 0
  %11 = getelementptr inbounds nuw i8, ptr %0, i64 180
  %12 = zext i1 %10 to i8
  store i8 %12, ptr %11, align 4, !tbaa !4
  tail call void @llvm.memcpy.p0.p0.i64(ptr noundef nonnull align 4 dereferenceable(180) %0, ptr noundef nonnull align 4 dereferenceable(180) %3, i64 180, i1 false), !tbaa.struct !16
  %13 = getelementptr inbounds nuw i8, ptr %0, i64 182
  br i1 %10, label %14, label %28

14:                                               ; preds = %7
  %15 = getelementptr inbounds nuw i8, ptr %0, i64 1647932
  %16 = tail call i32 @ff_sws_color_map_generate_dynamic(ptr noundef nonnull %13, ptr noundef nonnull %15, i32 noundef 65, i32 noundef 65, i32 noundef 129, ptr noundef nonnull %3) #5
  %17 = icmp slt i32 %16, 0
  br i1 %17, label %ff_sws_lut3d_update.exit, label %18

18:                                               ; preds = %14
  %19 = load i8, ptr %11, align 4, !tbaa !4, !range !18, !noundef !19
  %20 = trunc nuw i8 %19 to i1
  br i1 %20, label %21, label %ff_sws_lut3d_update.exit

21:                                               ; preds = %18
  %22 = getelementptr inbounds nuw i8, ptr %0, i64 72
  %23 = load i64, ptr %8, align 4
  store i64 %23, ptr %22, align 4
  %24 = getelementptr inbounds nuw i8, ptr %0, i64 80
  %25 = getelementptr inbounds nuw i8, ptr %3, i64 80
  %26 = load i64, ptr %25, align 4
  store i64 %26, ptr %24, align 4
  %27 = getelementptr inbounds nuw i8, ptr %0, i64 8137922
  tail call void @ff_sws_tone_map_generate(ptr noundef nonnull %27, i32 noundef 257, ptr noundef nonnull %0) #5
  br label %ff_sws_lut3d_update.exit

28:                                               ; preds = %7
  %29 = tail call i32 @ff_sws_color_map_generate_static(ptr noundef nonnull %13, i32 noundef 65, ptr noundef nonnull %3) #5
  br label %ff_sws_lut3d_update.exit

ff_sws_lut3d_update.exit:                         ; preds = %21, %18, %14, %4, %28
  %.0 = phi i32 [ %29, %28 ], [ -22, %4 ], [ %16, %14 ], [ 0, %18 ], [ 0, %21 ]
  ret i32 %.0
}